target datalayout = "e-m:e-p270:32:32-p271:32:32-p272:64:64-i64:64-i128:128-f80:128-n8:16:32:64-S128"
target triple = "x86_64-pc-linux-gnu"

%struct.bloom_filter = type { ptr, i64, i32, ptr }
%struct.bloom_filter_settings = type { i32, i32, i32, i32 }
%struct.bloom_key = type { ptr }

; Function Attrs: inlinehint nounwind uwtable
define internal zeroext i8 @get_bitmask(i32 noundef %0) #2 {
  %2 = alloca i32, align 4
  store i32 %0, ptr %2, align 4, !tbaa !11
  %3 = load i32, ptr %2, align 4, !tbaa !11
  %4 = and i32 %3, 7
  %5 = shl i32 1, %4
  %6 = trunc i32 %5 to i8
  ret i8 %6
}

; Function Attrs: nounwind uwtable
define dso_local i32 @bloom_filter_contains(ptr noundef %0, ptr noundef %1, ptr noundef %2) #0 {
  %4 = alloca i32, align 4
  %5 = alloca ptr, align 8
  %6 = alloca ptr, align 8
  %7 = alloca ptr, align 8
  %8 = alloca i32, align 4
  %9 = alloca i64, align 8
  %10 = alloca i32, align 4
  %11 = alloca i64, align 8
  %12 = alloca i64, align 8
  store ptr %0, ptr %5, align 8, !tbaa !9
  store ptr %1, ptr %6, align 8, !tbaa !42
  store ptr %2, ptr %7, align 8, !tbaa !44
  call void @llvm.lifetime.start.p0(i64 4, ptr %8) #8
  call void @llvm.lifetime.start.p0(i64 8, ptr %9) #8
  %13 = load ptr, ptr %5, align 8, !tbaa !9
  %14 = getelementptr inbounds nuw %struct.bloom_filter, ptr %13, i32 0, i32 1
  %15 = load i64, ptr %14, align 8, !tbaa !27
  %16 = mul i64 %15, 8
  store i64 %16, ptr %9, align 8, !tbaa !40
  %17 = load i64, ptr %9, align 8, !tbaa !40
  %18 = icmp ne i64 %17, 0
  br i1 %18, label %20, label %19

19:                                               ; preds = %3
  store i32 -1, ptr %4, align 4
  store i32 1, ptr %10, align 4
  br label %62

20:                                               ; preds = %3
  store i32 0, ptr %8, align 4, !tbaa !11
  br label %21

21:                                               ; preds = %58, %20
  %22 = load i32, ptr %8, align 4, !tbaa !11
  %23 = load ptr, ptr %7, align 8, !tbaa !44
  %24 = getelementptr inbounds nuw %struct.bloom_filter_settings, ptr %23, i32 0, i32 1
  %25 = load i32, ptr %24, align 4, !tbaa !45
  %26 = icmp ult i32 %22, %25
  br i1 %26, label %27, label %61

27:                                               ; preds = %21
  call void @llvm.lifetime.start.p0(i64 8, ptr %11) #8
  %28 = load ptr, ptr %6, align 8, !tbaa !42
  %29 = getelementptr inbounds nuw %struct.bloom_key, ptr %28, i32 0, i32 0
  %30 = load ptr, ptr %29, align 8, !tbaa !46
  %31 = load i32, ptr %8, align 4, !tbaa !11
  %32 = sext i32 %31 to i64
  %33 = getelementptr inbounds i32, ptr %30, i64 %32
  %34 = load i32, ptr %33, align 4, !tbaa !11
  %35 = zext i32 %34 to i64
  %36 = load i64, ptr %9, align 8, !tbaa !40
  %37 = urem i64 %35, %36
  store i64 %37, ptr %11, align 8, !tbaa !40
  call void @llvm.lifetime.start.p0(i64 8, ptr %12) #8
  %38 = load i64, ptr %11, align 8, !tbaa !40
  %39 = udiv i64 %38, 8
  store i64 %39, ptr %12, align 8, !tbaa !40
  %40 = load ptr, ptr %5, align 8, !tbaa !9
  %41 = getelementptr inbounds nuw %struct.bloom_filter, ptr %40, i32 0, i32 0
  %42 = load ptr, ptr %41, align 8, !tbaa !30
  %43 = load i64, ptr %12, align 8, !tbaa !40
  %44 = getelementptr inbounds nuw i8, ptr %42, i64 %43
  %45 = load i8, ptr %44, align 1, !tbaa !38
  %46 = zext i8 %45 to i32
  %47 = load i64, ptr %11, align 8, !tbaa !40
  %48 = trunc i64 %47 to i32
  %49 = call zeroext i8 @get_bitmask(i32 noundef %48)
  %50 = zext i8 %49 to i32
  %51 = and i32 %46, %50
  %52 = icmp ne i32 %51, 0
  br i1 %52, label %54, label %53

53:                                               ; preds = %27
  store i32 0, ptr %4, align 4
  store i32 1, ptr %10, align 4
  br label %55

54:                                               ; preds = %27
  store i32 0, ptr %10, align 4
  br label %55

55:                                               ; preds = %54, %53
  call void @llvm.lifetime.end.p0(i64 8, ptr %12) #8
  call void @llvm.lifetime.end.p0(i64 8, ptr %11) #8
  %56 = load i32, ptr %10, align 4
  switch i32 %56, label %62 [
    i32 0, label %57
  ]

57:                                               ; preds = %55
  br label %58

58:                                               ; preds = %57
  %59 = load i32, ptr %8, align 4, !tbaa !11
  %60 = add nsw i32 %59, 1
  store i32 %60, ptr %8, align 4, !tbaa !11
  br label %21, !llvm.loop !146

61:                                               ; preds = %21
  store i32 1, ptr %4, align 4
  store i32 1, ptr %10, align 4
  br label %62

62:                                               ; preds = %61, %55, %19
  call void @llvm.lifetime.end.p0(i64 8, ptr %9) #8
  call void @llvm.lifetime.end.p0(i64 4, ptr %8) #8
  %63 = load i32, ptr %4, align 4
  ret i32 %63
}