; Function Attrs: nofree norecurse nosync nounwind memory(read, inaccessiblemem: none) uwtable
define dso_local range(i32 -1, 2) i32 @bloom_filter_contains(ptr noundef readonly captures(none) %0, ptr noundef readonly captures(none) %1, ptr noundef readonly captures(none) %2) local_unnamed_addr #11 {
  %4 = getelementptr inbounds nuw i8, ptr %0, i64 8
  %5 = load i64, ptr %4, align 8, !tbaa !25
  %6 = shl i64 %5, 3
  %.not = icmp eq i64 %6, 0
  br i1 %.not, label %.loopexit, label %.preheader

.preheader:                                       ; preds = %3
  %7 = getelementptr inbounds nuw i8, ptr %2, i64 4
  %8 = load i32, ptr %7, align 4, !tbaa !35
  %.not20 = icmp eq i32 %8, 0
  br i1 %.not20, label %.loopexit, label %.lr.ph

.lr.ph:                                           ; preds = %.preheader
  %9 = load ptr, ptr %1, align 8, !tbaa !36
  %10 = load ptr, ptr %0, align 8, !tbaa !28
  %wide.trip.count = zext i32 %8 to i64
  br label %12

11:                                               ; preds = %12
  %indvars.iv.next = add nuw nsw i64 %indvars.iv, 1
  %exitcond.not = icmp eq i64 %indvars.iv.next, %wide.trip.count
  br i1 %exitcond.not, label %.loopexit, label %12, !llvm.loop !128

12:                                               ; preds = %.lr.ph, %11
  %indvars.iv = phi i64 [ 0, %.lr.ph ], [ %indvars.iv.next, %11 ]
  %13 = getelementptr inbounds nuw i32, ptr %9, i64 %indvars.iv
  %14 = load i32, ptr %13, align 4, !tbaa !38
  %15 = zext i32 %14 to i64
  %16 = urem i64 %15, %6
  %17 = lshr i64 %16, 3
  %18 = getelementptr inbounds nuw i8, ptr %10, i64 %17
  %19 = load i8, ptr %18, align 1, !tbaa !22
  %20 = trunc i64 %16 to i8
  %21 = and i8 %20, 7
  %22 = shl nuw i8 1, %21
  %23 = and i8 %22, %19
  %.not16.not = icmp eq i8 %23, 0
  br i1 %.not16.not, label %.loopexit, label %11

.loopexit:                                        ; preds = %12, %11, %.preheader, %3
  %.0 = phi i32 [ -1, %3 ], [ 1, %.preheader ], [ 0, %12 ], [ 1, %11 ]
  ret i32 %.0
}